target datalayout = "e-m:e-p270:32:32-p271:32:32-p272:64:64-i64:64-i128:128-f80:128-n8:16:32:64-S128"
target triple = "x86_64-pc-linux-gnu"

%struct.z_stream_s = type { ptr, i32, i64, ptr, i32, i64, ptr, ptr, ptr, ptr, ptr, i32, i64, i64 }
%struct.internal_state = type { ptr, i32, ptr, i64, ptr, i32, i32, ptr, i32, i8, i32, i32, i32, i32, ptr, i64, ptr, ptr, i32, i32, i32, i32, i32, i64, i32, i32, i32, i32, i32, i32, i32, i32, i32, i32, i32, i32, i32, [573 x %struct.ct_data_s], [61 x %struct.ct_data_s], [39 x %struct.ct_data_s], %struct.tree_desc_s, %struct.tree_desc_s, %struct.tree_desc_s, [16 x i16], [573 x i32], i32, i32, [573 x i8], ptr, i32, i32, ptr, i64, i64, i32, i32, i16, i32, i64 }
%struct.ct_data_s = type { %union.anon, %union.anon.0 }
%union.anon = type { i16 }
%union.anon.0 = type { i16 }
%struct.tree_desc_s = type { ptr, i32, ptr }

; Function Attrs: nounwind uwtable
define i32 @deflatePrime(ptr noundef %0, i32 noundef %1, i32 noundef %2) #0 {
  %4 = alloca i32, align 4
  %5 = alloca ptr, align 8
  %6 = alloca i32, align 4
  %7 = alloca i32, align 4
  %8 = alloca ptr, align 8
  %9 = alloca i32, align 4
  %10 = alloca i32, align 4
  store ptr %0, ptr %5, align 8, !tbaa !3
  store i32 %1, ptr %6, align 4, !tbaa !8
  store i32 %2, ptr %7, align 4, !tbaa !8
  call void @llvm.lifetime.start.p0(i64 8, ptr %8) #5
  call void @llvm.lifetime.start.p0(i64 4, ptr %9) #5
  %11 = load ptr, ptr %5, align 8, !tbaa !3
  %12 = icmp eq ptr %11, null
  br i1 %12, label %18, label %13

13:                                               ; preds = %3
  %14 = load ptr, ptr %5, align 8, !tbaa !3
  %15 = getelementptr inbounds nuw %struct.z_stream_s, ptr %14, i32 0, i32 7
  %16 = load ptr, ptr %15, align 8, !tbaa !21
  %17 = icmp eq ptr %16, null
  br i1 %17, label %18, label %19

18:                                               ; preds = %13, %3
  store i32 -2, ptr %4, align 4
  store i32 1, ptr %10, align 4
  br label %77

19:                                               ; preds = %13
  %20 = load ptr, ptr %5, align 8, !tbaa !3
  %21 = getelementptr inbounds nuw %struct.z_stream_s, ptr %20, i32 0, i32 7
  %22 = load ptr, ptr %21, align 8, !tbaa !21
  store ptr %22, ptr %8, align 8, !tbaa !20
  %23 = load ptr, ptr %8, align 8, !tbaa !20
  %24 = getelementptr inbounds nuw %struct.internal_state, ptr %23, i32 0, i32 51
  %25 = load ptr, ptr %24, align 8, !tbaa !48
  %26 = load ptr, ptr %8, align 8, !tbaa !20
  %27 = getelementptr inbounds nuw %struct.internal_state, ptr %26, i32 0, i32 4
  %28 = load ptr, ptr %27, align 8, !tbaa !79
  %29 = getelementptr inbounds i8, ptr %28, i64 2
  %30 = icmp ult ptr %25, %29
  br i1 %30, label %31, label %32

31:                                               ; preds = %19
  store i32 -5, ptr %4, align 4
  store i32 1, ptr %10, align 4
  br label %77

32:                                               ; preds = %19
  br label %33

33:                                               ; preds = %73, %32
  %34 = load ptr, ptr %8, align 8, !tbaa !20
  %35 = getelementptr inbounds nuw %struct.internal_state, ptr %34, i32 0, i32 57
  %36 = load i32, ptr %35, align 4, !tbaa !93
  %37 = sub nsw i32 16, %36
  store i32 %37, ptr %9, align 4, !tbaa !8
  %38 = load i32, ptr %9, align 4, !tbaa !8
  %39 = load i32, ptr %6, align 4, !tbaa !8
  %40 = icmp sgt i32 %38, %39
  br i1 %40, label %41, label %43

41:                                               ; preds = %33
  %42 = load i32, ptr %6, align 4, !tbaa !8
  store i32 %42, ptr %9, align 4, !tbaa !8
  br label %43

43:                                               ; preds = %41, %33
  %44 = load i32, ptr %7, align 4, !tbaa !8
  %45 = load i32, ptr %9, align 4, !tbaa !8
  %46 = shl i32 1, %45
  %47 = sub nsw i32 %46, 1
  %48 = and i32 %44, %47
  %49 = load ptr, ptr %8, align 8, !tbaa !20
  %50 = getelementptr inbounds nuw %struct.internal_state, ptr %49, i32 0, i32 57
  %51 = load i32, ptr %50, align 4, !tbaa !93
  %52 = shl i32 %48, %51
  %53 = trunc i32 %52 to i16
  %54 = zext i16 %53 to i32
  %55 = load ptr, ptr %8, align 8, !tbaa !20
  %56 = getelementptr inbounds nuw %struct.internal_state, ptr %55, i32 0, i32 56
  %57 = load i16, ptr %56, align 8, !tbaa !94
  %58 = zext i16 %57 to i32
  %59 = or i32 %58, %54
  %60 = trunc i32 %59 to i16
  store i16 %60, ptr %56, align 8, !tbaa !94
  %61 = load i32, ptr %9, align 4, !tbaa !8
  %62 = load ptr, ptr %8, align 8, !tbaa !20
  %63 = getelementptr inbounds nuw %struct.internal_state, ptr %62, i32 0, i32 57
  %64 = load i32, ptr %63, align 4, !tbaa !93
  %65 = add nsw i32 %64, %61
  store i32 %65, ptr %63, align 4, !tbaa !93
  %66 = load ptr, ptr %8, align 8, !tbaa !20
  call void @_tr_flush_bits(ptr noundef %66)
  %67 = load i32, ptr %9, align 4, !tbaa !8
  %68 = load i32, ptr %7, align 4, !tbaa !8
  %69 = ashr i32 %68, %67
  store i32 %69, ptr %7, align 4, !tbaa !8
  %70 = load i32, ptr %9, align 4, !tbaa !8
  %71 = load i32, ptr %6, align 4, !tbaa !8
  %72 = sub nsw i32 %71, %70
  store i32 %72, ptr %6, align 4, !tbaa !8
  br label %73

73:                                               ; preds = %43
  %74 = load i32, ptr %6, align 4, !tbaa !8
  %75 = icmp ne i32 %74, 0
  br i1 %75, label %33, label %76, !llvm.loop !95

76:                                               ; preds = %73
  store i32 0, ptr %4, align 4
  store i32 1, ptr %10, align 4
  br label %77

77:                                               ; preds = %76, %31, %18
  call void @llvm.lifetime.end.p0(i64 4, ptr %9) #5
  call void @llvm.lifetime.end.p0(i64 8, ptr %8) #5
  %78 = load i32, ptr %4, align 4
  ret i32 %78
}