; Function Attrs: nounwind uwtable
define range(i32 -5, 1) i32 @deflatePrime(ptr noundef readonly %0, i32 noundef %1, i32 noundef %2) local_unnamed_addr #0 {
  %4 = icmp eq ptr %0, null
  br i1 %4, label %.loopexit, label %5

5:                                                ; preds = %3
  %6 = getelementptr inbounds nuw i8, ptr %0, i64 56
  %7 = load ptr, ptr %6, align 8, !tbaa !16
  %8 = icmp eq ptr %7, null
  br i1 %8, label %.loopexit, label %9

9:                                                ; preds = %5
  %10 = getelementptr inbounds nuw i8, ptr %7, i64 5888
  %11 = load ptr, ptr %10, align 8, !tbaa !44
  %12 = getelementptr inbounds nuw i8, ptr %7, i64 32
  %13 = load ptr, ptr %12, align 8, !tbaa !52
  %14 = getelementptr inbounds nuw i8, ptr %13, i64 2
  %15 = icmp ult ptr %11, %14
  br i1 %15, label %.loopexit, label %.preheader

.preheader:                                       ; preds = %9
  %16 = getelementptr inbounds nuw i8, ptr %7, i64 5924
  %17 = getelementptr inbounds nuw i8, ptr %7, i64 5920
  br label %18

18:                                               ; preds = %.preheader, %18
  %.023 = phi i32 [ %29, %18 ], [ %1, %.preheader ]
  %.022 = phi i32 [ %28, %18 ], [ %2, %.preheader ]
  %19 = load i32, ptr %16, align 4, !tbaa !85
  %20 = sub nsw i32 16, %19
  %spec.select = tail call i32 @llvm.smin.i32(i32 %20, i32 %.023)
  %notmask = shl nsw i32 -1, %spec.select
  %21 = xor i32 %notmask, -1
  %22 = and i32 %.022, %21
  %23 = shl i32 %22, %19
  %24 = load i16, ptr %17, align 8, !tbaa !86
  %25 = trunc i32 %23 to i16
  %26 = or i16 %24, %25
  store i16 %26, ptr %17, align 8, !tbaa !86
  %27 = add nsw i32 %spec.select, %19
  store i32 %27, ptr %16, align 4, !tbaa !85
  tail call void @_tr_flush_bits(ptr noundef nonnull %7) #10
  %28 = ashr i32 %.022, %spec.select
  %29 = sub nsw i32 %.023, %spec.select
  %.not = icmp eq i32 %29, 0
  br i1 %.not, label %.loopexit, label %18, !llvm.loop !87

.loopexit:                                        ; preds = %18, %9, %3, %5
  %.021 = phi i32 [ -2, %5 ], [ -2, %3 ], [ -5, %9 ], [ 0, %18 ]
  ret i32 %.021
}